target datalayout = "e-m:e-p270:32:32-p271:32:32-p272:64:64-i64:64-i128:128-f80:128-n8:16:32:64-S128"
target triple = "x86_64-pc-linux-gnu"

%struct.foreach_step_info_t = type { ptr, i32, i32, i32, i32 }

; Function Attrs: nounwind uwtable
define dso_local i32 @gres_build_id(ptr noundef %0) #0 {
  %2 = alloca i32, align 4
  %3 = alloca ptr, align 8
  %4 = alloca i32, align 4
  %5 = alloca i32, align 4
  %6 = alloca i32, align 4
  %7 = alloca i32, align 4
  store ptr %0, ptr %3, align 8
  call void @llvm.lifetime.start.p0(i64 4, ptr %4) #11
  call void @llvm.lifetime.start.p0(i64 4, ptr %5) #11
  call void @llvm.lifetime.start.p0(i64 4, ptr %6) #11
  store i32 0, ptr %6, align 4
  %8 = load ptr, ptr %3, align 8
  %9 = icmp ne ptr %8, null
  br i1 %9, label %12, label %10

10:                                               ; preds = %1
  %11 = load i32, ptr %6, align 4
  store i32 %11, ptr %2, align 4
  store i32 1, ptr %7, align 4
  br label %39

12:                                               ; preds = %1
  store i32 0, ptr %4, align 4
  store i32 0, ptr %5, align 4
  br label %13

13:                                               ; preds = %34, %12
  %14 = load ptr, ptr %3, align 8
  %15 = load i32, ptr %4, align 4
  %16 = sext i32 %15 to i64
  %17 = getelementptr inbounds i8, ptr %14, i64 %16
  %18 = load i8, ptr %17, align 1
  %19 = icmp ne i8 %18, 0
  br i1 %19, label %20, label %37

20:                                               ; preds = %13
  %21 = load ptr, ptr %3, align 8
  %22 = load i32, ptr %4, align 4
  %23 = sext i32 %22 to i64
  %24 = getelementptr inbounds i8, ptr %21, i64 %23
  %25 = load i8, ptr %24, align 1
  %26 = sext i8 %25 to i32
  %27 = load i32, ptr %5, align 4
  %28 = shl i32 %26, %27
  %29 = load i32, ptr %6, align 4
  %30 = add i32 %29, %28
  store i32 %30, ptr %6, align 4
  %31 = load i32, ptr %5, align 4
  %32 = add nsw i32 %31, 8
  %33 = srem i32 %32, 32
  store i32 %33, ptr %5, align 4
  br label %34

34:                                               ; preds = %20
  %35 = load i32, ptr %4, align 4
  %36 = add nsw i32 %35, 1
  store i32 %36, ptr %4, align 4
  br label %13, !llvm.loop !14

37:                                               ; preds = %13
  %38 = load i32, ptr %6, align 4
  store i32 %38, ptr %2, align 4
  store i32 1, ptr %7, align 4
  br label %39

39:                                               ; preds = %37, %10
  call void @llvm.lifetime.end.p0(i64 4, ptr %6) #11
  call void @llvm.lifetime.end.p0(i64 4, ptr %5) #11
  call void @llvm.lifetime.end.p0(i64 4, ptr %4) #11
  %40 = load i32, ptr %2, align 4
  ret i32 %40
}

; Function Attrs: nounwind uwtable
define dso_local i32 @gres_get_step_info(ptr noundef %0, ptr noundef %1, i32 noundef %2, i32 noundef %3, ptr noundef %4) #0 {
  %6 = alloca i32, align 4
  %7 = alloca ptr, align 8
  %8 = alloca ptr, align 8
  %9 = alloca i32, align 4
  %10 = alloca i32, align 4
  %11 = alloca ptr, align 8
  %12 = alloca %struct.foreach_step_info_t, align 8
  %13 = alloca i32, align 4
  store ptr %0, ptr %7, align 8
  store ptr %1, ptr %8, align 8
  store i32 %2, ptr %9, align 4
  store i32 %3, ptr %10, align 4
  store ptr %4, ptr %11, align 8
  call void @llvm.lifetime.start.p0(i64 24, ptr %12) #11
  %14 = getelementptr inbounds nuw %struct.foreach_step_info_t, ptr %12, i32 0, i32 0
  %15 = load ptr, ptr %11, align 8
  store ptr %15, ptr %14, align 8
  %16 = getelementptr inbounds nuw %struct.foreach_step_info_t, ptr %12, i32 0, i32 1
  %17 = load i32, ptr %10, align 4
  store i32 %17, ptr %16, align 8
  %18 = getelementptr inbounds nuw %struct.foreach_step_info_t, ptr %12, i32 0, i32 2
  %19 = load i32, ptr %9, align 4
  store i32 %19, ptr %18, align 4
  %20 = getelementptr inbounds nuw %struct.foreach_step_info_t, ptr %12, i32 0, i32 3
  store i32 0, ptr %20, align 8
  %21 = getelementptr inbounds nuw %struct.foreach_step_info_t, ptr %12, i32 0, i32 4
  store i32 2072, ptr %21, align 4
  %22 = load ptr, ptr %11, align 8
  %23 = icmp eq ptr %22, null
  br i1 %23, label %24, label %25

24:                                               ; preds = %5
  store i32 22, ptr %6, align 4
  store i32 1, ptr %13, align 4
  br label %37

25:                                               ; preds = %5
  %26 = load ptr, ptr %7, align 8
  %27 = icmp eq ptr %26, null
  br i1 %27, label %28, label %29

28:                                               ; preds = %25
  store i32 2072, ptr %6, align 4
  store i32 1, ptr %13, align 4
  br label %37

29:                                               ; preds = %25
  %30 = load ptr, ptr %8, align 8
  %31 = call i32 @gres_build_id(ptr noundef %30)
  %32 = getelementptr inbounds nuw %struct.foreach_step_info_t, ptr %12, i32 0, i32 3
  store i32 %31, ptr %32, align 8
  %33 = load ptr, ptr %7, align 8
  %34 = call i32 @list_for_each(ptr noundef %33, ptr noundef @_foreach_get_step_info, ptr noundef %12)
  %35 = getelementptr inbounds nuw %struct.foreach_step_info_t, ptr %12, i32 0, i32 4
  %36 = load i32, ptr %35, align 4
  store i32 %36, ptr %6, align 4
  store i32 1, ptr %13, align 4
  br label %37

37:                                               ; preds = %29, %28, %24
  call void @llvm.lifetime.end.p0(i64 24, ptr %12) #11
  %38 = load i32, ptr %6, align 4
  ret i32 %38
}