; Function Attrs: nounwind uwtable
define dso_local i32 @gres_get_step_info(ptr noundef %0, ptr noundef readonly captures(address_is_null) %1, i32 noundef %2, i32 noundef %3, ptr noundef %4) #2 {
  %6 = alloca %struct.foreach_step_info_t, align 8
  call void @llvm.lifetime.start.p0(i64 24, ptr nonnull %6) #28
  store ptr %4, ptr %6, align 8
  %7 = getelementptr inbounds nuw i8, ptr %6, i64 8
  store i32 %3, ptr %7, align 8
  %8 = getelementptr inbounds nuw i8, ptr %6, i64 12
  store i32 %2, ptr %8, align 4
  %9 = getelementptr inbounds nuw i8, ptr %6, i64 16
  %10 = getelementptr inbounds nuw i8, ptr %6, i64 20
  store i32 2072, ptr %10, align 4
  %11 = icmp eq ptr %4, null
  br i1 %11, label %26, label %12

12:                                               ; preds = %5
  %13 = icmp eq ptr %0, null
  br i1 %13, label %26, label %14

14:                                               ; preds = %12
  %.not.i = icmp eq ptr %1, null
  br i1 %.not.i, label %gres_build_id.exit, label %.preheader.i

.preheader.i:                                     ; preds = %14
  %15 = load i8, ptr %1, align 1
  %.not1617.i = icmp eq i8 %15, 0
  br i1 %.not1617.i, label %gres_build_id.exit, label %.lr.ph.i

.lr.ph.i:                                         ; preds = %.preheader.i, %.lr.ph.i
  %indvars.iv.i = phi i64 [ %indvars.iv.next.i, %.lr.ph.i ], [ 0, %.preheader.i ]
  %16 = phi i8 [ %23, %.lr.ph.i ], [ %15, %.preheader.i ]
  %.020.i = phi i32 [ %19, %.lr.ph.i ], [ 0, %.preheader.i ]
  %.01119.i = phi i32 [ %21, %.lr.ph.i ], [ 0, %.preheader.i ]
  %17 = sext i8 %16 to i32
  %18 = shl i32 %17, %.01119.i
  %19 = add i32 %18, %.020.i
  %20 = add nsw i32 %.01119.i, 8
  %21 = srem i32 %20, 32
  %indvars.iv.next.i = add nuw nsw i64 %indvars.iv.i, 1
  %22 = getelementptr inbounds nuw i8, ptr %1, i64 %indvars.iv.next.i
  %23 = load i8, ptr %22, align 1
  %.not16.i = icmp eq i8 %23, 0
  br i1 %.not16.i, label %gres_build_id.exit, label %.lr.ph.i, !llvm.loop !11

gres_build_id.exit:                               ; preds = %.lr.ph.i, %14, %.preheader.i
  %.013.i = phi i32 [ 0, %14 ], [ 0, %.preheader.i ], [ %19, %.lr.ph.i ]
  store i32 %.013.i, ptr %9, align 8
  %24 = call i32 @list_for_each(ptr noundef nonnull %0, ptr noundef nonnull @_foreach_get_step_info, ptr noundef nonnull %6) #28
  %25 = load i32, ptr %10, align 4
  br label %26

26:                                               ; preds = %12, %5, %gres_build_id.exit
  %.0 = phi i32 [ %25, %gres_build_id.exit ], [ 22, %5 ], [ 2072, %12 ]
  call void @llvm.lifetime.end.p0(i64 24, ptr nonnull %6) #28
  ret i32 %.0
}